(lp0
(I29
ccopy_reg
_reconstructor
p1
(cassignment1
Customer
p2
c__builtin__
object
p3
Ntp4
Rp5
(dp6
S'eye_test'
p7
g1
(cassignment1
EyeTest
p8
g3
Ntp9
Rp10
(dp11
S'first_name'
p12
S'UZDMJOL'
p13
sS'last_name'
p14
S'KGVRU'
p15
sS'gender'
p16
S'M'
p17
sS'date_of_birth'
p18
cdatetime
date
p19
(S'\x07\xa1\x05\x0f'
p20
tp21
Rp22
sS'nationality'
p23
S'Australia'
p24
sS'expiry_date'
p25
g19
(S'\x07\xde\x04\x02'
p26
tp27
Rp28
sbsS'drivers_license_translation'
p29
g1
(cassignment1
Drivers_License_Translation
p30
g3
Ntp31
Rp32
(dp33
S'drivers_license'
p34
g1
(cassignment1
Drivers_License
p35
g3
Ntp36
Rp37
(dp38
g12
g13
sg14
g15
sg16
g17
sg18
g22
sg23
g24
sg25
g19
(S'\x07\xde\x03\x0e'
p39
tp40
Rp41
sbsbsS'passport'
p42
g1
(cassignment1
Passport
p43
g3
Ntp44
Rp45
(dp46
g12
g13
sg14
g15
sg16
g17
sg18
g22
sg23
g24
sg25
g19
(S'\x07\xde\x03\x12'
p47
tp48
Rp49
sbsg34
g37
sS'emirates_id'
p50
g1
(cassignment1
Emirates_ID
p51
g3
Ntp52
Rp53
(dp54
g12
g13
sg14
g15
sS'id_number'
p55
S'LI4637'
p56
sg16
g17
sg18
g22
sg23
g24
sg25
g19
(S'\x07\xde\x03\x1e'
p57
tp58
Rp59
sbsbtp60
a(I937
g1
(g2
g3
Ntp61
Rp62
(dp63
g7
g1
(g8
g3
Ntp64
Rp65
(dp66
g12
S'BCWT'
p67
sg14
S'FFPS'
p68
sg16
g17
sg18
g19
(S'\x07\xc0\n\x17'
p69
tp70
Rp71
sg23
S'United Sates'
p72
sg25
g19
(S'\x07\xde\x03\x1c'
p73
tp74
Rp75
sbsg29
g1
(g30
g3
Ntp76
Rp77
(dp78
g34
g1
(g35
g3
Ntp79
Rp80
(dp81
g12
g67
sg14
g68
sg16
g17
sg18
g71
sg23
g72
sg25
g19
(S'\x07\xde\x03\x1d'
p82
tp83
Rp84
sbsbsg42
g1
(g43
g3
Ntp85
Rp86
(dp87
g12
g67
sg14
g68
sg16
g17
sg18
g71
sg23
g72
sg25
g19
(S'\x07\xde\x03\x15'
p88
tp89
Rp90
sbsg34
g80
sg50
g1
(g51
g3
Ntp91
Rp92
(dp93
g12
g67
sg14
g68
sg55
S'CM3112'
p94
sg16
g17
sg18
g71
sg23
g72
sg25
g19
(S'\x07\xde\x03\x1a'
p95
tp96
Rp97
sbsbtp98
a(I422
g1
(g2
g3
Ntp99
Rp100
(dp101
g7
g1
(g8
g3
Ntp102
Rp103
(dp104
g12
S'MVWV'
p105
sg14
S'MZUE'
p106
sg16
S'F'
p107
sg18
g19
(S'\x07\xcc\x03\x0b'
p108
tp109
Rp110
sg23
S'United Kingdom'
p111
sg25
g19
(S'\x07\xde\x02\x08'
p112
tp113
Rp114
sbsg29
g1
(g30
g3
Ntp115
Rp116
(dp117
g34
g1
(g35
g3
Ntp118
Rp119
(dp120
g12
g105
sg14
g106
sg16
g107
sg18
g110
sg23
g111
sg25
g19
(S'\x07\xde\x03\x0c'
p121
tp122
Rp123
sbsbsg42
g1
(g43
g3
Ntp124
Rp125
(dp126
g12
g105
sg14
g106
sg16
g107
sg18
g110
sg23
g111
sg25
g19
(S'\x07\xde\x03\x0f'
p127
tp128
Rp129
sbsg34
g119
sg50
g1
(g51
g3
Ntp130
Rp131
(dp132
g12
g105
sg14
g106
sg55
S'KD8166'
p133
sg16
g107
sg18
g110
sg23
g111
sg25
g19
(S'\x07\xde\x03\x17'
p134
tp135
Rp136
sbsbtp137
a(I884
g1
(g2
g3
Ntp138
Rp139
(dp140
g7
g1
(g8
g3
Ntp141
Rp142
(dp143
g12
S'XLHXJ'
p144
sg14
S'BCLTA'
p145
sg16
g107
sg18
g19
(S'\x07\xa0\x08\x10'
p146
tp147
Rp148
sg23
g111
sg25
g19
(S'\x07\xde\x03\x1c'
p149
tp150
Rp151
sbsg29
g1
(g30
g3
Ntp152
Rp153
(dp154
g34
g1
(g35
g3
Ntp155
Rp156
(dp157
g12
g144
sg14
g145
sg16
g107
sg18
g148
sg23
g111
sg25
g19
(S'\x07\xde\x03\x17'
p158
tp159
Rp160
sbsbsg42
g1
(g43
g3
Ntp161
Rp162
(dp163
g12
g144
sg14
g145
sg16
g107
sg18
g148
sg23
g111
sg25
g19
(S'\x07\xde\x03\x1b'
p164
tp165
Rp166
sbsg34
g156
sg50
g1
(g51
g3
Ntp167
Rp168
(dp169
g12
g144
sg14
g145
sg55
S'CF9421'
p170
sg16
g107
sg18
g148
sg23
g111
sg25
g19
(S'\x07\xde\x03\x1b'
p171
tp172
Rp173
sbsbtp174
a(I347
g1
(g2
g3
Ntp175
Rp176
(dp177
g7
g1
(g8
g3
Ntp178
Rp179
(dp180
g12
S'XOPSVZZ'
p181
sg14
S'DQQXWD'
p182
sg16
g107
sg18
g19
(S'\x07\xa2\x04\x03'
p183
tp184
Rp185
sg23
g72
sg25
g19
(S'\x07\xde\x02\x10'
p186
tp187
Rp188
sbsg29
g1
(g30
g3
Ntp189
Rp190
(dp191
g34
g1
(g35
g3
Ntp192
Rp193
(dp194
g12
g181
sg14
g182
sg16
g107
sg18
g185
sg23
g72
sg25
g19
(S'\x07\xde\x04\x01'
p195
tp196
Rp197
sbsbsg42
g1
(g43
g3
Ntp198
Rp199
(dp200
g12
g181
sg14
g182
sg16
g107
sg18
g185
sg23
g72
sg25
g19
(S'\x07\xde\x03\x10'
p201
tp202
Rp203
sbsg34
g193
sg50
g1
(g51
g3
Ntp204
Rp205
(dp206
g12
g181
sg14
g182
sg55
S'DC3408'
p207
sg16
g107
sg18
g185
sg23
g72
sg25
g19
(S'\x07\xde\x03\x1a'
p208
tp209
Rp210
sbsbtp211
a(I856
g1
(g2
g3
Ntp212
Rp213
(dp214
g7
g1
(g8
g3
Ntp215
Rp216
(dp217
g12
S'GSIFJR'
p218
sg14
S'EIFJ'
p219
sg16
g17
sg18
g19
(S'\x07\xb8\x04\x03'
p220
tp221
Rp222
sg23
g24
sg25
g19
(S'\x07\xde\x03\x0c'
p223
tp224
Rp225
sbsg29
g1
(g30
g3
Ntp226
Rp227
(dp228
g34
g1
(g35
g3
Ntp229
Rp230
(dp231
g12
g218
sg14
g219
sg16
g17
sg18
g222
sg23
g24
sg25
g19
(S'\x07\xde\x03\n'
p232
tp233
Rp234
sbsbsg42
g1
(g43
g3
Ntp235
Rp236
(dp237
g12
g218
sg14
g219
sg16
g17
sg18
g222
sg23
g24
sg25
g19
(S'\x07\xde\x03\n'
p238
tp239
Rp240
sbsg34
g230
sg50
g1
(g51
g3
Ntp241
Rp242
(dp243
g12
g218
sg14
g219
sg55
S'ZJ8226'
p244
sg16
g17
sg18
g222
sg23
g24
sg25
g19
(S'\x07\xde\x03\x17'
p245
tp246
Rp247
sbsbtp248
a(I857
g1
(g2
g3
Ntp249
Rp250
(dp251
g7
g1
(g8
g3
Ntp252
Rp253
(dp254
g12
S'NIVTVZU'
p255
sg14
S'CHDJBEY'
p256
sg16
g107
sg18
g19
(S'\x07\xcc\x01\x1f'
p257
tp258
Rp259
sg23
g72
sg25
g19
(S'\x07\xde\x03\x1f'
p260
tp261
Rp262
sbsg29
g1
(g30
g3
Ntp263
Rp264
(dp265
g34
g1
(g35
g3
Ntp266
Rp267
(dp268
g12
g255
sg14
g256
sg16
g107
sg18
g259
sg23
g72
sg25
g19
(S'\x07\xde\x03\x1f'
p269
tp270
Rp271
sbsbsg42
g1
(g43
g3
Ntp272
Rp273
(dp274
g12
g255
sg14
g256
sg16
g107
sg18
g259
sg23
g72
sg25
g19
(S'\x07\xde\x03\x13'
p275
tp276
Rp277
sbsg34
g267
sg50
g1
(g51
g3
Ntp278
Rp279
(dp280
g12
g255
sg14
g256
sg55
S'IH0859'
p281
sg16
g107
sg18
g259
sg23
g72
sg25
g19
(S'\x07\xde\x03\r'
p282
tp283
Rp284
sbsbtp285
a(I656
g1
(g2
g3
Ntp286
Rp287
(dp288
g7
g1
(g8
g3
Ntp289
Rp290
(dp291
g12
S'MJNQTS'
p292
sg14
S'AQMGLT'
p293
sg16
g17
sg18
g19
(S'\x07\xaf\x08\x0e'
p294
tp295
Rp296
sg23
g111
sg25
g19
(S'\x07\xde\x03\x17'
p297
tp298
Rp299
sbsg29
g1
(g30
g3
Ntp300
Rp301
(dp302
g34
g1
(g35
g3
Ntp303
Rp304
(dp305
g12
g292
sg14
g293
sg16
g17
sg18
g296
sg23
g111
sg25
g19
(S'\x07\xde\x03\x13'
p306
tp307
Rp308
sbsbsg42
g1
(g43
g3
Ntp309
Rp310
(dp311
g12
g292
sg14
g293
sg16
g17
sg18
g296
sg23
g111
sg25
g19
(S'\x07\xde\x03\x12'
p312
tp313
Rp314
sbsg34
g304
sg50
g1
(g51
g3
Ntp315
Rp316
(dp317
g12
g292
sg14
g293
sg55
S'DA5504'
p318
sg16
g17
sg18
g296
sg23
g111
sg25
g19
(S'\x07\xde\x03\x0e'
p319
tp320
Rp321
sbsbtp322
a(I188
g1
(g2
g3
Ntp323
Rp324
(dp325
g7
g1
(g8
g3
Ntp326
Rp327
(dp328
g12
S'YYMDO'
p329
sg14
S'XMKMKF'
p330
sg16
g17
sg18
g19
(S'\x07\xbc\t\x1b'
p331
tp332
Rp333
sg23
g24
sg25
g19
(S'\x07\xde\x02\x07'
p334
tp335
Rp336
sbsg29
g1
(g30
g3
Ntp337
Rp338
(dp339
g34
g1
(g35
g3
Ntp340
Rp341
(dp342
g12
g329
sg14
g330
sg16
g17
sg18
g333
sg23
g24
sg25
g19
(S'\x07\xde\x03\x1e'
p343
tp344
Rp345
sbsbsg42
g1
(g43
g3
Ntp346
Rp347
(dp348
g12
g329
sg14
g330
sg16
g17
sg18
g333
sg23
g24
sg25
g19
(S'\x07\xde\x03\x17'
p349
tp350
Rp351
sbsg34
g341
sg50
g1
(g51
g3
Ntp352
Rp353
(dp354
g12
g329
sg14
g330
sg55
S'LR6868'
p355
sg16
g17
sg18
g333
sg23
g24
sg25
g19
(S'\x07\xde\x03\x0e'
p356
tp357
Rp358
sbsbtp359
a(I730
g1
(g2
g3
Ntp360
Rp361
(dp362
g7
g1
(g8
g3
Ntp363
Rp364
(dp365
g12
S'VFQWGZB'
p366
sg14
S'JMWJ'
p367
sg16
g17
sg18
g19
(S'\x07\xbd\x0c\r'
p368
tp369
Rp370
sg23
g111
sg25
g19
(S'\x07\xde\x03\x0e'
p371
tp372
Rp373
sbsg29
Nsg42
g1
(g43
g3
Ntp374
Rp375
(dp376
g12
g366
sg14
g367
sg16
g17
sg18
g370
sg23
g111
sg25
g19
(S'\x07\xde\x03\x19'
p377
tp378
Rp379
sbsg34
g1
(g35
g3
Ntp380
Rp381
(dp382
g12
g366
sg14
g367
sg16
g17
sg18
g370
sg23
g111
sg25
g19
(S'\x07\xde\x03\x0e'
p383
tp384
Rp385
sbsg50
g1
(g51
g3
Ntp386
Rp387
(dp388
g12
g366
sg14
g367
sg55
S'KD8709'
p389
sg16
g17
sg18
g370
sg23
g111
sg25
g19
(S'\x07\xde\x03\x1e'
p390
tp391
Rp392
sbsbtp393
a(I610
g1
(g2
g3
Ntp394
Rp395
(dp396
g7
g1
(g8
g3
Ntp397
Rp398
(dp399
g12
S'EMOCN'
p400
sg14
S'OTSTW'
p401
sg16
g107
sg18
g19
(S'\x07\xb1\x01\x14'
p402
tp403
Rp404
sg23
g111
sg25
g19
(S'\x07\xde\x03\x1a'
p405
tp406
Rp407
sbsg29
Nsg42
g1
(g43
g3
Ntp408
Rp409
(dp410
g12
g400
sg14
g401
sg16
g107
sg18
g404
sg23
g111
sg25
g19
(S'\x07\xde\x03\x10'
p411
tp412
Rp413
sbsg34
g1
(g35
g3
Ntp414
Rp415
(dp416
g12
g400
sg14
g401
sg16
g107
sg18
g404
sg23
g111
sg25
g19
(S'\x07\xde\x03\x15'
p417
tp418
Rp419
sbsg50
g1
(g51
g3
Ntp420
Rp421
(dp422
g12
g400
sg14
g401
sg55
S'MM9259'
p423
sg16
g107
sg18
g404
sg23
g111
sg25
g19
(S'\x07\xde\x03\x15'
p424
tp425
Rp426
sbsbtp427
a(I67
g1
(g2
g3
Ntp428
Rp429
(dp430
g7
g1
(g8
g3
Ntp431
Rp432
(dp433
g12
S'BDTNJLE'
p434
sg14
S'TGQWJ'
p435
sg16
g17
sg18
g19
(S'\x07\xab\t\x18'
p436
tp437
Rp438
sg23
g111
sg25
g19
(S'\x07\xde\x03\x18'
p439
tp440
Rp441
sbsg29
g1
(g30
g3
Ntp442
Rp443
(dp444
g34
g1
(g35
g3
Ntp445
Rp446
(dp447
g12
g434
sg14
g435
sg16
g17
sg18
g438
sg23
g111
sg25
g19
(S'\x07\xde\x03\x0b'
p448
tp449
Rp450
sbsbsg42
g1
(g43
g3
Ntp451
Rp452
(dp453
g12
g434
sg14
g435
sg16
g17
sg18
g438
sg23
g111
sg25
g19
(S'\x07\xde\x03\x0b'
p454
tp455
Rp456
sbsg34
g446
sg50
g1
(g51
g3
Ntp457
Rp458
(dp459
g12
g434
sg14
g435
sg55
S'HC0438'
p460
sg16
g17
sg18
g438
sg23
g111
sg25
g19
(S'\x07\xde\x03\r'
p461
tp462
Rp463
sbsbtp464
a(I717
g1
(g2
g3
Ntp465
Rp466
(dp467
g7
g1
(g8
g3
Ntp468
Rp469
(dp470
g12
S'WOWT'
p471
sg14
S'IWFE'
p472
sg16
g107
sg18
g19
(S'\x07\xaa\x04\x07'
p473
tp474
Rp475
sg23
g111
sg25
g19
(S'\x07\xde\x02\x11'
p476
tp477
Rp478
sbsg29
g1
(g30
g3
Ntp479
Rp480
(dp481
g34
g1
(g35
g3
Ntp482
Rp483
(dp484
g12
g471
sg14
g472
sg16
g107
sg18
g475
sg23
g111
sg25
g19
(S'\x07\xde\x03\x1b'
p485
tp486
Rp487
sbsbsg42
g1
(g43
g3
Ntp488
Rp489
(dp490
g12
g471
sg14
g472
sg16
g107
sg18
g475
sg23
g111
sg25
g19
(S'\x07\xde\x03\r'
p491
tp492
Rp493
sbsg34
g483
sg50
g1
(g51
g3
Ntp494
Rp495
(dp496
g12
g471
sg14
g472
sg55
S'PP4696'
p497
sg16
g107
sg18
g475
sg23
g111
sg25
g19
(S'\x07\xde\x03\x0c'
p498
tp499
Rp500
sbsbtp501
a(I34
g1
(g2
g3
Ntp502
Rp503
(dp504
g7
g1
(g8
g3
Ntp505
Rp506
(dp507
g12
S'DMEHK'
p508
sg14
S'LWCIR'
p509
sg16
g17
sg18
g19
(S'\x07\xa8\x08\x16'
p510
tp511
Rp512
sg23
g111
sg25
g19
(S'\x07\xde\x02\x0f'
p513
tp514
Rp515
sbsg29
g1
(g30
g3
Ntp516
Rp517
(dp518
g34
g1
(g35
g3
Ntp519
Rp520
(dp521
g12
g508
sg14
g509
sg16
g17
sg18
g512
sg23
g111
sg25
g19
(S'\x07\xde\x03\x15'
p522
tp523
Rp524
sbsbsg42
g1
(g43
g3
Ntp525
Rp526
(dp527
g12
g508
sg14
g509
sg16
g17
sg18
g512
sg23
g111
sg25
g19
(S'\x07\xde\x03\x16'
p528
tp529
Rp530
sbsg34
g520
sg50
g1
(g51
g3
Ntp531
Rp532
(dp533
g12
g508
sg14
g509
sg55
S'FM8771'
p534
sg16
g17
sg18
g512
sg23
g111
sg25
g19
(S'\x07\xde\x03\x0f'
p535
tp536
Rp537
sbsbtp538
a(I94
g1
(g2
g3
Ntp539
Rp540
(dp541
g7
g1
(g8
g3
Ntp542
Rp543
(dp544
g12
S'ANUKVJR'
p545
sg14
S'JMOPJ'
p546
sg16
g107
sg18
g19
(S'\x07\xb7\x0c\x11'
p547
tp548
Rp549
sg23
g72
sg25
g19
(S'\x07\xde\x03\x17'
p550
tp551
Rp552
sbsg29
g1
(g30
g3
Ntp553
Rp554
(dp555
g34
g1
(g35
g3
Ntp556
Rp557
(dp558
g12
g545
sg14
g546
sg16
g107
sg18
g549
sg23
g72
sg25
g19
(S'\x07\xde\x03\x1d'
p559
tp560
Rp561
sbsbsg42
g1
(g43
g3
Ntp562
Rp563
(dp564
g12
g545
sg14
g546
sg16
g107
sg18
g549
sg23
g72
sg25
g19
(S'\x07\xde\x03\x1f'
p565
tp566
Rp567
sbsg34
g557
sg50
g1
(g51
g3
Ntp568
Rp569
(dp570
g12
g545
sg14
g546
sg55
S'RL1469'
p571
sg16
g107
sg18
g549
sg23
g72
sg25
g19
(S'\x07\xde\x03\x0b'
p572
tp573
Rp574
sbsbtp575
a(I298
g1
(g2
g3
Ntp576
Rp577
(dp578
g7
g1
(g8
g3
Ntp579
Rp580
(dp581
g12
S'GBJWZ'
p582
sg14
S'FBHHKIK'
p583
sg16
g107
sg18
g19
(S'\x07\xc8\x04\x0b'
p584
tp585
Rp586
sg23
g111
sg25
g19
(S'\x07\xde\x03\x15'
p587
tp588
Rp589
sbsg29
g1
(g30
g3
Ntp590
Rp591
(dp592
g34
g1
(g35
g3
Ntp593
Rp594
(dp595
g12
g582
sg14
g583
sg16
g107
sg18
g586
sg23
g111
sg25
g19
(S'\x07\xde\x03\r'
p596
tp597
Rp598
sbsbsg42
g1
(g43
g3
Ntp599
Rp600
(dp601
g12
g582
sg14
g583
sg16
g107
sg18
g586
sg23
g111
sg25
g19
(S'\x07\xde\x03\x1b'
p602
tp603
Rp604
sbsg34
g594
sg50
g1
(g51
g3
Ntp605
Rp606
(dp607
g12
g582
sg14
g583
sg55
S'GY6750'
p608
sg16
g107
sg18
g586
sg23
g111
sg25
g19
(S'\x07\xde\x03\x16'
p609
tp610
Rp611
sbsbtp612
a(I614
g1
(g2
g3
Ntp613
Rp614
(dp615
g7
g1
(g8
g3
Ntp616
Rp617
(dp618
g12
S'ZIZWKDL'
p619
sg14
S'TGHRNAM'
p620
sg16
g107
sg18
g19
(S'\x07\xa0\x06\x05'
p621
tp622
Rp623
sg23
g72
sg25
g19
(S'\x07\xde\x03\x1e'
p624
tp625
Rp626
sbsg29
g1
(g30
g3
Ntp627
Rp628
(dp629
g34
g1
(g35
g3
Ntp630
Rp631
(dp632
g12
g619
sg14
g620
sg16
g107
sg18
g623
sg23
g72
sg25
g19
(S'\x07\xde\x03\x17'
p633
tp634
Rp635
sbsbsg42
g1
(g43
g3
Ntp636
Rp637
(dp638
g12
g619
sg14
g620
sg16
g107
sg18
g623
sg23
g72
sg25
g19
(S'\x07\xde\x03\x17'
p639
tp640
Rp641
sbsg34
g631
sg50
g1
(g51
g3
Ntp642
Rp643
(dp644
g12
g619
sg14
g620
sg55
S'DA2161'
p645
sg16
g107
sg18
g623
sg23
g72
sg25
g19
(S'\x07\xde\x03\x1d'
p646
tp647
Rp648
sbsbtp649
a(I284
g1
(g2
g3
Ntp650
Rp651
(dp652
g7
g1
(g8
g3
Ntp653
Rp654
(dp655
g12
S'IXIKVR'
p656
sg14
S'HETKFK'
p657
sg16
g107
sg18
g19
(S'\x07\x9e\x02\x0c'
p658
tp659
Rp660
sg23
g24
sg25
g19
(S'\x07\xde\x02\x1a'
p661
tp662
Rp663
sbsg29
g1
(g30
g3
Ntp664
Rp665
(dp666
g34
g1
(g35
g3
Ntp667
Rp668
(dp669
g12
g656
sg14
g657
sg16
g107
sg18
g660
sg23
g24
sg25
g19
(S'\x07\xde\x03\n'
p670
tp671
Rp672
sbsbsg42
g1
(g43
g3
Ntp673
Rp674
(dp675
g12
g656
sg14
g657
sg16
g107
sg18
g660
sg23
g24
sg25
g19
(S'\x07\xde\x03\x12'
p676
tp677
Rp678
sbsg34
g668
sg50
g1
(g51
g3
Ntp679
Rp680
(dp681
g12
g656
sg14
g657
sg55
S'UN4709'
p682
sg16
g107
sg18
g660
sg23
g24
sg25
g19
(S'\x07\xde\x03\n'
p683
tp684
Rp685
sbsbtp686
a(I321
g1
(g2
g3
Ntp687
Rp688
(dp689
g7
g1
(g8
g3
Ntp690
Rp691
(dp692
g12
S'MCXNFL'
p693
sg14
S'UUVKYF'
p694
sg16
g107
sg18
g19
(S'\x07\xb8\n\x0c'
p695
tp696
Rp697
sg23
g24
sg25
g19
(S'\x07\xde\x03\x1c'
p698
tp699
Rp700
sbsg29
Nsg42
g1
(g43
g3
Ntp701
Rp702
(dp703
g12
g693
sg14
g694
sg16
g107
sg18
g697
sg23
g24
sg25
g19
(S'\x07\xde\x03\x0c'
p704
tp705
Rp706
sbsg34
g1
(g35
g3
Ntp707
Rp708
(dp709
g12
g693
sg14
g694
sg16
g107
sg18
g697
sg23
g24
sg25
g19
(S'\x07\xde\x03\x1c'
p710
tp711
Rp712
sbsg50
g1
(g51
g3
Ntp713
Rp714
(dp715
g12
g693
sg14
g694
sg55
S'CU7846'
p716
sg16
g107
sg18
g697
sg23
g24
sg25
g19
(S'\x07\xde\x03\x0c'
p717
tp718
Rp719
sbsbtp720
a(I427
g1
(g2
g3
Ntp721
Rp722
(dp723
g7
g1
(g8
g3
Ntp724
Rp725
(dp726
g12
S'JLENVP'
p727
sg14
S'AOLG'
p728
sg16
g17
sg18
g19
(S'\x07\xbd\x02\x15'
p729
tp730
Rp731
sg23
g72
sg25
g19
(S'\x07\xde\x02\x07'
p732
tp733
Rp734
sbsg29
Nsg42
g1
(g43
g3
Ntp735
Rp736
(dp737
g12
g727
sg14
g728
sg16
g17
sg18
g731
sg23
g72
sg25
g19
(S'\x07\xde\x04\x01'
p738
tp739
Rp740
sbsg34
g1
(g35
g3
Ntp741
Rp742
(dp743
g12
g727
sg14
g728
sg16
g17
sg18
g731
sg23
g72
sg25
g19
(S'\x07\xde\x03\x14'
p744
tp745
Rp746
sbsg50
g1
(g51
g3
Ntp747
Rp748
(dp749
g12
g727
sg14
g728
sg55
S'HF9312'
p750
sg16
g17
sg18
g731
sg23
g72
sg25
g19
(S'\x07\xde\x03\x1c'
p751
tp752
Rp753
sbsbtp754
a(I736
g1
(g2
g3
Ntp755
Rp756
(dp757
g7
g1
(g8
g3
Ntp758
Rp759
(dp760
g12
S'REZP'
p761
sg14
S'QICM'
p762
sg16
g17
sg18
g19
(S'\x07\xa0\x04\x02'
p763
tp764
Rp765
sg23
g111
sg25
g19
(S'\x07\xde\x03\x14'
p766
tp767
Rp768
sbsg29
g1
(g30
g3
Ntp769
Rp770
(dp771
g34
g1
(g35
g3
Ntp772
Rp773
(dp774
g12
g761
sg14
g762
sg16
g17
sg18
g765
sg23
g111
sg25
g19
(S'\x07\xde\x03\x1b'
p775
tp776
Rp777
sbsbsg42
g1
(g43
g3
Ntp778
Rp779
(dp780
g12
g761
sg14
g762
sg16
g17
sg18
g765
sg23
g111
sg25
g19
(S'\x07\xde\x03\x0b'
p781
tp782
Rp783
sbsg34
g773
sg50
g1
(g51
g3
Ntp784
Rp785
(dp786
g12
g761
sg14
g762
sg55
S'FG5862'
p787
sg16
g17
sg18
g765
sg23
g111
sg25
g19
(S'\x07\xde\x03\r'
p788
tp789
Rp790
sbsbtp791
a(I902
g1
(g2
g3
Ntp792
Rp793
(dp794
g7
g1
(g8
g3
Ntp795
Rp796
(dp797
g12
S'CBMAXGE'
p798
sg14
S'XELX'
p799
sg16
g107
sg18
g19
(S'\x07\xa5\x07\x0f'
p800
tp801
Rp802
sg23
g24
sg25
g19
(S'\x07\xde\x04\x01'
p803
tp804
Rp805
sbsg29
Nsg42
g1
(g43
g3
Ntp806
Rp807
(dp808
g12
g798
sg14
g799
sg16
g107
sg18
g802
sg23
g24
sg25
g19
(S'\x07\xde\x03\x11'
p809
tp810
Rp811
sbsg34
g1
(g35
g3
Ntp812
Rp813
(dp814
g12
g798
sg14
g799
sg16
g107
sg18
g802
sg23
g24
sg25
g19
(S'\x07\xde\x03\x1a'
p815
tp816
Rp817
sbsg50
g1
(g51
g3
Ntp818
Rp819
(dp820
g12
g798
sg14
g799
sg55
S'SS2274'
p821
sg16
g107
sg18
g802
sg23
g24
sg25
g19
(S'\x07\xde\x03\x1a'
p822
tp823
Rp824
sbsbtp825
a(I1
g1
(g2
g3
Ntp826
Rp827
(dp828
g7
g1
(g8
g3
Ntp829
Rp830
(dp831
g12
S'LXPP'
p832
sg14
S'SJKWO'
p833
sg16
g107
sg18
g19
(S'\x07\xc1\x02\x0e'
p834
tp835
Rp836
sg23
g111
sg25
g19
(S'\x07\xde\x02\n'
p837
tp838
Rp839
sbsg29
g1
(g30
g3
Ntp840
Rp841
(dp842
g34
g1
(g35
g3
Ntp843
Rp844
(dp845
g12
g832
sg14
g833
sg16
g107
sg18
g836
sg23
g111
sg25
g19
(S'\x07\xde\x03\x1e'
p846
tp847
Rp848
sbsbsg42
g1
(g43
g3
Ntp849
Rp850
(dp851
g12
g832
sg14
g833
sg16
g107
sg18
g836
sg23
g111
sg25
g19
(S'\x07\xde\x03\x14'
p852
tp853
Rp854
sbsg34
g844
sg50
g1
(g51
g3
Ntp855
Rp856
(dp857
g12
g832
sg14
g833
sg55
S'DT6866'
p858
sg16
g107
sg18
g836
sg23
g111
sg25
g19
(S'\x07\xde\x03\x1a'
p859
tp860
Rp861
sbsbtp862
a(I585
g1
(g2
g3
Ntp863
Rp864
(dp865
g7
g1
(g8
g3
Ntp866
Rp867
(dp868
g12
S'IUPZZZ'
p869
sg14
S'LKAWLBZ'
p870
sg16
g107
sg18
g19
(S'\x07\xba\x04\x1d'
p871
tp872
Rp873
sg23
g111
sg25
g19
(S'\x07\xde\x02\x12'
p874
tp875
Rp876
sbsg29
Nsg42
g1
(g43
g3
Ntp877
Rp878
(dp879
g12
g869
sg14
g870
sg16
g107
sg18
g873
sg23
g111
sg25
g19
(S'\x07\xde\x04\x02'
p880
tp881
Rp882
sbsg34
g1
(g35
g3
Ntp883
Rp884
(dp885
g12
g869
sg14
g870
sg16
g107
sg18
g873
sg23
g111
sg25
g19
(S'\x07\xde\x03\x13'
p886
tp887
Rp888
sbsg50
g1
(g51
g3
Ntp889
Rp890
(dp891
g12
g869
sg14
g870
sg55
S'JV5815'
p892
sg16
g107
sg18
g873
sg23
g111
sg25
g19
(S'\x07\xde\x03\x1e'
p893
tp894
Rp895
sbsbtp896
a(I74
g1
(g2
g3
Ntp897
Rp898
(dp899
g7
g1
(g8
g3
Ntp900
Rp901
(dp902
g12
S'ERWRTBH'
p903
sg14
S'FFSFMR'
p904
sg16
g107
sg18
g19
(S'\x07\x9e\t\x11'
p905
tp906
Rp907
sg23
g111
sg25
g19
(S'\x07\xde\x03\r'
p908
tp909
Rp910
sbsg29
Nsg42
g1
(g43
g3
Ntp911
Rp912
(dp913
g12
g903
sg14
g904
sg16
g107
sg18
g907
sg23
g111
sg25
g19
(S'\x07\xde\x04\x01'
p914
tp915
Rp916
sbsg34
g1
(g35
g3
Ntp917
Rp918
(dp919
g12
g903
sg14
g904
sg16
g107
sg18
g907
sg23
g111
sg25
g19
(S'\x07\xde\x03\x1c'
p920
tp921
Rp922
sbsg50
g1
(g51
g3
Ntp923
Rp924
(dp925
g12
g903
sg14
g904
sg55
S'BW4098'
p926
sg16
g107
sg18
g907
sg23
g111
sg25
g19
(S'\x07\xde\x04\x03'
p927
tp928
Rp929
sbsbtp930
a(I302
g1
(g2
g3
Ntp931
Rp932
(dp933
g7
g1
(g8
g3
Ntp934
Rp935
(dp936
g12
S'YNNYBE'
p937
sg14
S'JFVB'
p938
sg16
g107
sg18
g19
(S'\x07\xb9\x0c\x16'
p939
tp940
Rp941
sg23
g111
sg25
g19
(S'\x07\xde\x02\x17'
p942
tp943
Rp944
sbsg29
Nsg42
g1
(g43
g3
Ntp945
Rp946
(dp947
g12
g937
sg14
g938
sg16
g107
sg18
g941
sg23
g111
sg25
g19
(S'\x07\xde\x03\x1d'
p948
tp949
Rp950
sbsg34
g1
(g35
g3
Ntp951
Rp952
(dp953
g12
g937
sg14
g938
sg16
g107
sg18
g941
sg23
g111
sg25
g19
(S'\x07\xde\x03\x1e'
p954
tp955
Rp956
sbsg50
g1
(g51
g3
Ntp957
Rp958
(dp959
g12
g937
sg14
g938
sg55
S'FK5903'
p960
sg16
g107
sg18
g941
sg23
g111
sg25
g19
(S'\x07\xde\x04\x03'
p961
tp962
Rp963
sbsbtp964
a(I475
g1
(g2
g3
Ntp965
Rp966
(dp967
g7
g1
(g8
g3
Ntp968
Rp969
(dp970
g12
S'GZLLJF'
p971
sg14
S'CNJBMWR'
p972
sg16
g107
sg18
g19
(S'\x07\xa6\t\t'
p973
tp974
Rp975
sg23
g111
sg25
g19
(S'\x07\xde\x03\x0b'
p976
tp977
Rp978
sbsg29
g1
(g30
g3
Ntp979
Rp980
(dp981
g34
g1
(g35
g3
Ntp982
Rp983
(dp984
g12
g971
sg14
g972
sg16
g107
sg18
g975
sg23
g111
sg25
g19
(S'\x07\xde\x03\x0c'
p985
tp986
Rp987
sbsbsg42
g1
(g43
g3
Ntp988
Rp989
(dp990
g12
g971
sg14
g972
sg16
g107
sg18
g975
sg23
g111
sg25
g19
(S'\x07\xde\x03\x0b'
p991
tp992
Rp993
sbsg34
g983
sg50
g1
(g51
g3
Ntp994
Rp995
(dp996
g12
g971
sg14
g972
sg55
S'OI8967'
p997
sg16
g107
sg18
g975
sg23
g111
sg25
g19
(S'\x07\xde\x03\x10'
p998
tp999
Rp1000
sbsbtp1001
a(I940
g1
(g2
g3
Ntp1002
Rp1003
(dp1004
g7
g1
(g8
g3
Ntp1005
Rp1006
(dp1007
g12
S'DEFJQAK'
p1008
sg14
S'HPVMXV'
p1009
sg16
g17
sg18
g19
(S'\x07\xb3\x0c\x03'
p1010
tp1011
Rp1012
sg23
g72
sg25
g19
(S'\x07\xde\x02\x13'
p1013
tp1014
Rp1015
sbsg29
Nsg42
g1
(g43
g3
Ntp1016
Rp1017
(dp1018
g12
g1008
sg14
g1009
sg16
g17
sg18
g1012
sg23
g72
sg25
g19
(S'\x07\xde\x03\x1b'
p1019
tp1020
Rp1021
sbsg34
g1
(g35
g3
Ntp1022
Rp1023
(dp1024
g12
g1008
sg14
g1009
sg16
g17
sg18
g1012
sg23
g72
sg25
g19
(S'\x07\xde\x03\x1f'
p1025
tp1026
Rp1027
sbsg50
g1
(g51
g3
Ntp1028
Rp1029
(dp1030
g12
g1008
sg14
g1009
sg55
S'OR4233'
p1031
sg16
g17
sg18
g1012
sg23
g72
sg25
g19
(S'\x07\xde\x03\x1f'
p1032
tp1033
Rp1034
sbsbtp1035
a(I425
g1
(g2
g3
Ntp1036
Rp1037
(dp1038
g7
g1
(g8
g3
Ntp1039
Rp1040
(dp1041
g12
S'SHCDYNF'
p1042
sg14
S'NYQYEY'
p1043
sg16
g17
sg18
g19
(S'\x07\xad\x0b\x1a'
p1044
tp1045
Rp1046
sg23
g72
sg25
g19
(S'\x07\xde\x02\x1b'
p1047
tp1048
Rp1049
sbsg29
g1
(g30
g3
Ntp1050
Rp1051
(dp1052
g34
g1
(g35
g3
Ntp1053
Rp1054
(dp1055
g12
g1042
sg14
g1043
sg16
g17
sg18
g1046
sg23
g72
sg25
g19
(S'\x07\xde\x04\x03'
p1056
tp1057
Rp1058
sbsbsg42
g1
(g43
g3
Ntp1059
Rp1060
(dp1061
g12
g1042
sg14
g1043
sg16
g17
sg18
g1046
sg23
g72
sg25
g19
(S'\x07\xde\x04\x02'
p1062
tp1063
Rp1064
sbsg34
g1054
sg50
g1
(g51
g3
Ntp1065
Rp1066
(dp1067
g12
g1042
sg14
g1043
sg55
S'LQ1502'
p1068
sg16
g17
sg18
g1046
sg23
g72
sg25
g19
(S'\x07\xde\x03\x0b'
p1069
tp1070
Rp1071
sbsbtp1072
a(I951
g1
(g2
g3
Ntp1073
Rp1074
(dp1075
g7
g1
(g8
g3
Ntp1076
Rp1077
(dp1078
g12
S'BZCZU'
p1079
sg14
S'NWMNQQ'
p1080
sg16
g17
sg18
g19
(S'\x07\xb8\x05\x10'
p1081
tp1082
Rp1083
sg23
g24
sg25
g19
(S'\x07\xde\x02\x19'
p1084
tp1085
Rp1086
sbsg29
Nsg42
g1
(g43
g3
Ntp1087
Rp1088
(dp1089
g12
g1079
sg14
g1080
sg16
g17
sg18
g1083
sg23
g24
sg25
g19
(S'\x07\xde\x03\x19'
p1090
tp1091
Rp1092
sbsg34
g1
(g35
g3
Ntp1093
Rp1094
(dp1095
g12
g1079
sg14
g1080
sg16
g17
sg18
g1083
sg23
g24
sg25
g19
(S'\x07\xde\x03\x16'
p1096
tp1097
Rp1098
sbsg50
g1
(g51
g3
Ntp1099
Rp1100
(dp1101
g12
g1079
sg14
g1080
sg55
S'IB1041'
p1102
sg16
g17
sg18
g1083
sg23
g24
sg25
g19
(S'\x07\xde\x03\x1b'
p1103
tp1104
Rp1105
sbsbtp1106
a.