(lp0
ccopy_reg
_reconstructor
p1
(cassignment1
Customer
p2
c__builtin__
object
p3
Ntp4
Rp5
(dp6
S'eye_test'
p7
g1
(cassignment1
EyeTest
p8
g3
Ntp9
Rp10
(dp11
S'first_name'
p12
S'SSEEXEB'
p13
sS'last_name'
p14
S'CBBHWAK'
p15
sS'gender'
p16
S'F'
p17
sS'date_of_birth'
p18
cdatetime
date
p19
(S'\x07\xbf\x04\x1a'
p20
tp21
Rp22
sS'nationality'
p23
S'United Kingdom'
p24
sS'expiry_date'
p25
g19
(S'\x07\xde\x02\x16'
p26
tp27
Rp28
sbsS'drivers_license_translation'
p29
g1
(cassignment1
Drivers_License_Translation
p30
g3
Ntp31
Rp32
(dp33
S'drivers_license'
p34
g1
(cassignment1
Drivers_License
p35
g3
Ntp36
Rp37
(dp38
g12
g13
sg14
g15
sg16
g17
sg18
g22
sg23
g24
sg25
g19
(S'\x07\xde\x03\x04'
p39
tp40
Rp41
sbsbsS'passport'
p42
g1
(cassignment1
Passport
p43
g3
Ntp44
Rp45
(dp46
g12
g13
sg14
g15
sg16
g17
sg18
g22
sg23
g24
sg25
g19
(S'\x07\xde\x03\x04'
p47
tp48
Rp49
sbsg34
g37
sS'emirates_id'
p50
g1
(cassignment1
Emirates_ID
p51
g3
Ntp52
Rp53
(dp54
g12
g13
sg14
g15
sS'id_number'
p55
S'XU3333'
p56
sg16
g17
sg18
g22
sg23
g24
sg25
g19
(S'\x07\xde\x03\x04'
p57
tp58
Rp59
sbsbag1
(g2
g3
Ntp60
Rp61
(dp62
g7
g1
(g8
g3
Ntp63
Rp64
(dp65
g12
S'FUWV'
p66
sg14
S'TTFX'
p67
sg16
S'M'
p68
sg18
g19
(S'\x07\xa8\x08\x01'
p69
tp70
Rp71
sg23
S'United Sates'
p72
sg25
g19
(S'\x07\xde\x02\x16'
p73
tp74
Rp75
sbsg29
g1
(g30
g3
Ntp76
Rp77
(dp78
g34
g1
(g35
g3
Ntp79
Rp80
(dp81
g12
g66
sg14
g67
sg16
g68
sg18
g71
sg23
g72
sg25
g19
(S'\x07\xde\x03\x04'
p82
tp83
Rp84
sbsbsg42
g1
(g43
g3
Ntp85
Rp86
(dp87
g12
g66
sg14
g67
sg16
g68
sg18
g71
sg23
g72
sg25
g19
(S'\x07\xde\x03\x04'
p88
tp89
Rp90
sbsg34
g80
sg50
g1
(g51
g3
Ntp91
Rp92
(dp93
g12
g66
sg14
g67
sg55
S'FP2870'
p94
sg16
g68
sg18
g71
sg23
g72
sg25
g19
(S'\x07\xde\x03\x04'
p95
tp96
Rp97
sbsbag1
(g2
g3
Ntp98
Rp99
(dp100
g7
g1
(g8
g3
Ntp101
Rp102
(dp103
g12
S'QZQZJVH'
p104
sg14
S'ASCOQ'
p105
sg16
g17
sg18
g19
(S'\x07\xcf\x03\x14'
p106
tp107
Rp108
sg23
S'Australia'
p109
sg25
g19
(S'\x07\xde\x02\x16'
p110
tp111
Rp112
sbsg29
g1
(g30
g3
Ntp113
Rp114
(dp115
g34
g1
(g35
g3
Ntp116
Rp117
(dp118
g12
g104
sg14
g105
sg16
g17
sg18
g108
sg23
g109
sg25
g19
(S'\x07\xde\x03\x04'
p119
tp120
Rp121
sbsbsg42
g1
(g43
g3
Ntp122
Rp123
(dp124
g12
g104
sg14
g105
sg16
g17
sg18
g108
sg23
g109
sg25
g19
(S'\x07\xde\x03\x04'
p125
tp126
Rp127
sbsg34
g117
sg50
g1
(g51
g3
Ntp128
Rp129
(dp130
g12
g104
sg14
g105
sg55
S'IZ8659'
p131
sg16
g17
sg18
g108
sg23
g109
sg25
g19
(S'\x07\xde\x03\x04'
p132
tp133
Rp134
sbsbag1
(g2
g3
Ntp135
Rp136
(dp137
g7
g1
(g8
g3
Ntp138
Rp139
(dp140
g12
S'JWAGVD'
p141
sg14
S'GPUL'
p142
sg16
g17
sg18
g19
(S'\x07\xab\x03\x05'
p143
tp144
Rp145
sg23
g24
sg25
g19
(S'\x07\xde\x02\x16'
p146
tp147
Rp148
sbsg29
g1
(g30
g3
Ntp149
Rp150
(dp151
g34
g1
(g35
g3
Ntp152
Rp153
(dp154
g12
g141
sg14
g142
sg16
g17
sg18
g145
sg23
g24
sg25
g19
(S'\x07\xde\x03\x04'
p155
tp156
Rp157
sbsbsg42
g1
(g43
g3
Ntp158
Rp159
(dp160
g12
g141
sg14
g142
sg16
g17
sg18
g145
sg23
g24
sg25
g19
(S'\x07\xde\x03\x04'
p161
tp162
Rp163
sbsg34
g153
sg50
g1
(g51
g3
Ntp164
Rp165
(dp166
g12
g141
sg14
g142
sg55
S'SM8900'
p167
sg16
g17
sg18
g145
sg23
g24
sg25
g19
(S'\x07\xde\x03\x04'
p168
tp169
Rp170
sbsbag1
(g2
g3
Ntp171
Rp172
(dp173
g7
g1
(g8
g3
Ntp174
Rp175
(dp176
g12
S'IDDLS'
p177
sg14
S'HGKAAAT'
p178
sg16
g17
sg18
g19
(S'\x07\x9f\x0b\x12'
p179
tp180
Rp181
sg23
g72
sg25
g19
(S'\x07\xde\x02\x16'
p182
tp183
Rp184
sbsg29
g1
(g30
g3
Ntp185
Rp186
(dp187
g34
g1
(g35
g3
Ntp188
Rp189
(dp190
g12
g177
sg14
g178
sg16
g17
sg18
g181
sg23
g72
sg25
g19
(S'\x07\xde\x03\x04'
p191
tp192
Rp193
sbsbsg42
g1
(g43
g3
Ntp194
Rp195
(dp196
g12
g177
sg14
g178
sg16
g17
sg18
g181
sg23
g72
sg25
g19
(S'\x07\xde\x03\x04'
p197
tp198
Rp199
sbsg34
g189
sg50
g1
(g51
g3
Ntp200
Rp201
(dp202
g12
g177
sg14
g178
sg55
S'WX3532'
p203
sg16
g17
sg18
g181
sg23
g72
sg25
g19
(S'\x07\xde\x03\x04'
p204
tp205
Rp206
sbsbag1
(g2
g3
Ntp207
Rp208
(dp209
g7
g1
(g8
g3
Ntp210
Rp211
(dp212
g12
S'HQIJXSW'
p213
sg14
S'OHRD'
p214
sg16
g17
sg18
g19
(S'\x07\xb3\x06\x10'
p215
tp216
Rp217
sg23
g24
sg25
g19
(S'\x07\xde\x02\x16'
p218
tp219
Rp220
sbsg29
g1
(g30
g3
Ntp221
Rp222
(dp223
g34
g1
(g35
g3
Ntp224
Rp225
(dp226
g12
g213
sg14
g214
sg16
g17
sg18
g217
sg23
g24
sg25
g19
(S'\x07\xde\x03\x04'
p227
tp228
Rp229
sbsbsg42
g1
(g43
g3
Ntp230
Rp231
(dp232
g12
g213
sg14
g214
sg16
g17
sg18
g217
sg23
g24
sg25
g19
(S'\x07\xde\x03\x04'
p233
tp234
Rp235
sbsg34
g225
sg50
g1
(g51
g3
Ntp236
Rp237
(dp238
g12
g213
sg14
g214
sg55
S'IX7285'
p239
sg16
g17
sg18
g217
sg23
g24
sg25
g19
(S'\x07\xde\x03\x04'
p240
tp241
Rp242
sbsbag1
(g2
g3
Ntp243
Rp244
(dp245
g7
g1
(g8
g3
Ntp246
Rp247
(dp248
g12
S'KKTV'
p249
sg14
S'ECBD'
p250
sg16
g68
sg18
g19
(S'\x07\xc6\x02\x03'
p251
tp252
Rp253
sg23
g72
sg25
g19
(S'\x07\xde\x02\x16'
p254
tp255
Rp256
sbsg29
g1
(g30
g3
Ntp257
Rp258
(dp259
g34
g1
(g35
g3
Ntp260
Rp261
(dp262
g12
g249
sg14
g250
sg16
g68
sg18
g253
sg23
g72
sg25
g19
(S'\x07\xde\x03\x04'
p263
tp264
Rp265
sbsbsg42
g1
(g43
g3
Ntp266
Rp267
(dp268
g12
g249
sg14
g250
sg16
g68
sg18
g253
sg23
g72
sg25
g19
(S'\x07\xde\x03\x04'
p269
tp270
Rp271
sbsg34
g261
sg50
g1
(g51
g3
Ntp272
Rp273
(dp274
g12
g249
sg14
g250
sg55
S'ZC9063'
p275
sg16
g68
sg18
g253
sg23
g72
sg25
g19
(S'\x07\xde\x03\x04'
p276
tp277
Rp278
sbsbag1
(g2
g3
Ntp279
Rp280
(dp281
g7
g1
(g8
g3
Ntp282
Rp283
(dp284
g12
S'YRUSMI'
p285
sg14
S'FSRNVFY'
p286
sg16
g68
sg18
g19
(S'\x07\xb2\x02\x0c'
p287
tp288
Rp289
sg23
g24
sg25
g19
(S'\x07\xde\x02\x16'
p290
tp291
Rp292
sbsg29
g1
(g30
g3
Ntp293
Rp294
(dp295
g34
g1
(g35
g3
Ntp296
Rp297
(dp298
g12
g285
sg14
g286
sg16
g68
sg18
g289
sg23
g24
sg25
g19
(S'\x07\xde\x03\x04'
p299
tp300
Rp301
sbsbsg42
g1
(g43
g3
Ntp302
Rp303
(dp304
g12
g285
sg14
g286
sg16
g68
sg18
g289
sg23
g24
sg25
g19
(S'\x07\xde\x03\x04'
p305
tp306
Rp307
sbsg34
g297
sg50
g1
(g51
g3
Ntp308
Rp309
(dp310
g12
g285
sg14
g286
sg55
S'FH7302'
p311
sg16
g68
sg18
g289
sg23
g24
sg25
g19
(S'\x07\xde\x03\x04'
p312
tp313
Rp314
sbsbag1
(g2
g3
Ntp315
Rp316
(dp317
g7
g1
(g8
g3
Ntp318
Rp319
(dp320
g12
S'GKXFBRF'
p321
sg14
S'FIKJBZ'
p322
sg16
g68
sg18
g19
(S'\x07\xc2\x05\x1b'
p323
tp324
Rp325
sg23
g72
sg25
g19
(S'\x07\xde\x02\x16'
p326
tp327
Rp328
sbsg29
g1
(g30
g3
Ntp329
Rp330
(dp331
g34
g1
(g35
g3
Ntp332
Rp333
(dp334
g12
g321
sg14
g322
sg16
g68
sg18
g325
sg23
g72
sg25
g19
(S'\x07\xde\x03\x04'
p335
tp336
Rp337
sbsbsg42
g1
(g43
g3
Ntp338
Rp339
(dp340
g12
g321
sg14
g322
sg16
g68
sg18
g325
sg23
g72
sg25
g19
(S'\x07\xde\x03\x04'
p341
tp342
Rp343
sbsg34
g333
sg50
g1
(g51
g3
Ntp344
Rp345
(dp346
g12
g321
sg14
g322
sg55
S'DK2287'
p347
sg16
g68
sg18
g325
sg23
g72
sg25
g19
(S'\x07\xde\x03\x04'
p348
tp349
Rp350
sbsbag1
(g2
g3
Ntp351
Rp352
(dp353
g7
g1
(g8
g3
Ntp354
Rp355
(dp356
g12
S'HMRMM'
p357
sg14
S'CLZW'
p358
sg16
g68
sg18
g19
(S'\x07\xba\x05\n'
p359
tp360
Rp361
sg23
g109
sg25
g19
(S'\x07\xde\x02\x16'
p362
tp363
Rp364
sbsg29
g1
(g30
g3
Ntp365
Rp366
(dp367
g34
g1
(g35
g3
Ntp368
Rp369
(dp370
g12
g357
sg14
g358
sg16
g68
sg18
g361
sg23
g109
sg25
g19
(S'\x07\xde\x03\x04'
p371
tp372
Rp373
sbsbsg42
g1
(g43
g3
Ntp374
Rp375
(dp376
g12
g357
sg14
g358
sg16
g68
sg18
g361
sg23
g109
sg25
g19
(S'\x07\xde\x03\x04'
p377
tp378
Rp379
sbsg34
g369
sg50
g1
(g51
g3
Ntp380
Rp381
(dp382
g12
g357
sg14
g358
sg55
S'RN3383'
p383
sg16
g68
sg18
g361
sg23
g109
sg25
g19
(S'\x07\xde\x03\x04'
p384
tp385
Rp386
sbsba.